target datalayout = "e-m:e-p270:32:32-p271:32:32-p272:64:64-i64:64-i128:128-f80:128-n8:16:32:64-S128"
target triple = "x86_64-unknown-linux-gnu"

%struct.b2ContactRegister = type { ptr, ptr, i8 }

@_ZN9b2Contact11s_registersE = global [4 x [4 x %struct.b2ContactRegister]] zeroinitializer, align 16

; Function Attrs: mustprogress nounwind uwtable
define void @_ZN9b2Contact7AddTypeEPFPS_P9b2FixtureiS2_iP16b2BlockAllocatorEPFvS0_S4_EN7b2Shape4TypeESA_(ptr noundef %createFcn, ptr noundef %destoryFcn, i32 noundef %type1, i32 noundef %type2) #1 align 2 {
entry:
  %createFcn.addr = alloca ptr, align 8
  %destoryFcn.addr = alloca ptr, align 8
  %type1.addr = alloca i32, align 4
  %type2.addr = alloca i32, align 4
  store ptr %createFcn, ptr %createFcn.addr, align 8
  store ptr %destoryFcn, ptr %destoryFcn.addr, align 8
  store i32 %type1, ptr %type1.addr, align 4
  store i32 %type2, ptr %type2.addr, align 4
  %0 = load ptr, ptr %createFcn.addr, align 8
  %1 = load i32, ptr %type1.addr, align 4
  %idxprom = zext i32 %1 to i64
  %arrayidx = getelementptr inbounds [4 x [4 x %struct.b2ContactRegister]], ptr @_ZN9b2Contact11s_registersE, i64 0, i64 %idxprom
  %2 = load i32, ptr %type2.addr, align 4
  %idxprom1 = zext i32 %2 to i64
  %arrayidx2 = getelementptr inbounds [4 x %struct.b2ContactRegister], ptr %arrayidx, i64 0, i64 %idxprom1
  %createFcn3 = getelementptr inbounds %struct.b2ContactRegister, ptr %arrayidx2, i32 0, i32 0
  store ptr %0, ptr %createFcn3, align 8
  %3 = load ptr, ptr %destoryFcn.addr, align 8
  %4 = load i32, ptr %type1.addr, align 4
  %idxprom4 = zext i32 %4 to i64
  %arrayidx5 = getelementptr inbounds [4 x [4 x %struct.b2ContactRegister]], ptr @_ZN9b2Contact11s_registersE, i64 0, i64 %idxprom4
  %5 = load i32, ptr %type2.addr, align 4
  %idxprom6 = zext i32 %5 to i64
  %arrayidx7 = getelementptr inbounds [4 x %struct.b2ContactRegister], ptr %arrayidx5, i64 0, i64 %idxprom6
  %destroyFcn = getelementptr inbounds %struct.b2ContactRegister, ptr %arrayidx7, i32 0, i32 1
  store ptr %3, ptr %destroyFcn, align 8
  %6 = load i32, ptr %type1.addr, align 4
  %idxprom8 = zext i32 %6 to i64
  %arrayidx9 = getelementptr inbounds [4 x [4 x %struct.b2ContactRegister]], ptr @_ZN9b2Contact11s_registersE, i64 0, i64 %idxprom8
  %7 = load i32, ptr %type2.addr, align 4
  %idxprom10 = zext i32 %7 to i64
  %arrayidx11 = getelementptr inbounds [4 x %struct.b2ContactRegister], ptr %arrayidx9, i64 0, i64 %idxprom10
  %primary = getelementptr inbounds %struct.b2ContactRegister, ptr %arrayidx11, i32 0, i32 2
  store i8 1, ptr %primary, align 8
  %8 = load i32, ptr %type1.addr, align 4
  %9 = load i32, ptr %type2.addr, align 4
  %cmp = icmp ne i32 %8, %9
  br i1 %cmp, label %if.then, label %if.end

if.then:                                          ; preds = %entry
  %10 = load ptr, ptr %createFcn.addr, align 8
  %11 = load i32, ptr %type2.addr, align 4
  %idxprom12 = zext i32 %11 to i64
  %arrayidx13 = getelementptr inbounds [4 x [4 x %struct.b2ContactRegister]], ptr @_ZN9b2Contact11s_registersE, i64 0, i64 %idxprom12
  %12 = load i32, ptr %type1.addr, align 4
  %idxprom14 = zext i32 %12 to i64
  %arrayidx15 = getelementptr inbounds [4 x %struct.b2ContactRegister], ptr %arrayidx13, i64 0, i64 %idxprom14
  %createFcn16 = getelementptr inbounds %struct.b2ContactRegister, ptr %arrayidx15, i32 0, i32 0
  store ptr %10, ptr %createFcn16, align 8
  %13 = load ptr, ptr %destoryFcn.addr, align 8
  %14 = load i32, ptr %type2.addr, align 4
  %idxprom17 = zext i32 %14 to i64
  %arrayidx18 = getelementptr inbounds [4 x [4 x %struct.b2ContactRegister]], ptr @_ZN9b2Contact11s_registersE, i64 0, i64 %idxprom17
  %15 = load i32, ptr %type1.addr, align 4
  %idxprom19 = zext i32 %15 to i64
  %arrayidx20 = getelementptr inbounds [4 x %struct.b2ContactRegister], ptr %arrayidx18, i64 0, i64 %idxprom19
  %destroyFcn21 = getelementptr inbounds %struct.b2ContactRegister, ptr %arrayidx20, i32 0, i32 1
  store ptr %13, ptr %destroyFcn21, align 8
  %16 = load i32, ptr %type2.addr, align 4
  %idxprom22 = zext i32 %16 to i64
  %arrayidx23 = getelementptr inbounds [4 x [4 x %struct.b2ContactRegister]], ptr @_ZN9b2Contact11s_registersE, i64 0, i64 %idxprom22
  %17 = load i32, ptr %type1.addr, align 4
  %idxprom24 = zext i32 %17 to i64
  %arrayidx25 = getelementptr inbounds [4 x %struct.b2ContactRegister], ptr %arrayidx23, i64 0, i64 %idxprom24
  %primary26 = getelementptr inbounds %struct.b2ContactRegister, ptr %arrayidx25, i32 0, i32 2
  store i8 0, ptr %primary26, align 8
  br label %if.end

if.end:                                           ; preds = %if.then, %entry
  ret void
}