; Function Attrs: mustprogress nofree norecurse nosync nounwind willreturn memory(write, argmem: none, inaccessiblemem: none) uwtable
define void @_ZN9b2Contact7AddTypeEPFPS_P9b2FixtureiS2_iP16b2BlockAllocatorEPFvS0_S4_EN7b2Shape4TypeESA_(ptr noundef %createFcn, ptr noundef %destoryFcn, i32 noundef %type1, i32 noundef %type2) local_unnamed_addr #0 align 2 {
entry:
  %idxprom = zext i32 %type1 to i64
  %idxprom1 = zext i32 %type2 to i64
  %arrayidx2 = getelementptr inbounds [4 x [4 x %struct.b2ContactRegister]], ptr @_ZN9b2Contact11s_registersE, i64 0, i64 %idxprom, i64 %idxprom1
  store ptr %createFcn, ptr %arrayidx2, align 8
  %destroyFcn = getelementptr inbounds i8, ptr %arrayidx2, i64 8
  store ptr %destoryFcn, ptr %destroyFcn, align 8
  %primary = getelementptr inbounds i8, ptr %arrayidx2, i64 16
  store i8 1, ptr %primary, align 8
  %cmp.not = icmp eq i32 %type1, %type2
  br i1 %cmp.not, label %if.end, label %if.then

if.then:                                          ; preds = %entry
  %arrayidx15 = getelementptr inbounds [4 x [4 x %struct.b2ContactRegister]], ptr @_ZN9b2Contact11s_registersE, i64 0, i64 %idxprom1, i64 %idxprom
  store ptr %createFcn, ptr %arrayidx15, align 8
  %destroyFcn21 = getelementptr inbounds i8, ptr %arrayidx15, i64 8
  store ptr %destoryFcn, ptr %destroyFcn21, align 8
  %primary26 = getelementptr inbounds i8, ptr %arrayidx15, i64 16
  store i8 0, ptr %primary26, align 8
  br label %if.end

if.end:                                           ; preds = %if.then, %entry
  ret void
}